target datalayout = "e-m:e-p270:32:32-p271:32:32-p272:64:64-i64:64-i128:128-f80:128-n8:16:32:64-S128"
target triple = "x86_64-pc-linux-gnu"

%"class.LIEF::MachO::FilesetCommand" = type { %"class.LIEF::MachO::LoadCommand", %"class.std::__cxx11::basic_string", i64, i64, ptr }
%"class.LIEF::MachO::LoadCommand" = type { %"class.LIEF::Object", %"class.std::vector", i64, i32, i64 }
%"class.LIEF::Object" = type { ptr }
%"class.std::vector" = type { %"struct.std::_Vector_base" }
%"struct.std::_Vector_base" = type { %"struct.std::_Vector_base<unsigned char, std::allocator<unsigned char>>::_Vector_impl" }
%"struct.std::_Vector_base<unsigned char, std::allocator<unsigned char>>::_Vector_impl" = type { %"struct.std::_Vector_base<unsigned char, std::allocator<unsigned char>>::_Vector_impl_data" }
%"struct.std::_Vector_base<unsigned char, std::allocator<unsigned char>>::_Vector_impl_data" = type { ptr, ptr, ptr }
%"class.std::__cxx11::basic_string" = type { %"struct.std::__cxx11::basic_string<char>::_Alloc_hider", i64, %union.anon }
%"struct.std::__cxx11::basic_string<char>::_Alloc_hider" = type { ptr }
%union.anon = type { i64, [8 x i8] }

; Function Attrs: mustprogress uwtable
define void @_ZN4LIEF5MachO14FilesetCommandC2ERKS1_(ptr noundef nonnull align 8 dereferenceable(112) %0, ptr noundef nonnull align 8 dereferenceable(112) %1) unnamed_addr #0 align 2 personality ptr @__gxx_personality_v0 {
  %3 = alloca ptr, align 8
  %4 = alloca ptr, align 8
  %5 = alloca ptr, align 8
  %6 = alloca i32, align 4
  store ptr %0, ptr %3, align 8
  store ptr %1, ptr %4, align 8
  %7 = load ptr, ptr %3, align 8
  %8 = load ptr, ptr %4, align 8
  call void @_ZN4LIEF5MachO11LoadCommandC2ERKS1_(ptr noundef nonnull align 8 dereferenceable(56) %7, ptr noundef nonnull align 8 dereferenceable(56) %8)
  store ptr getelementptr inbounds ({ [9 x ptr] }, ptr @_ZTVN4LIEF5MachO14FilesetCommandE, i32 0, i32 0, i32 2), ptr %7, align 8
  %9 = getelementptr inbounds %"class.LIEF::MachO::FilesetCommand", ptr %7, i32 0, i32 1
  %10 = load ptr, ptr %4, align 8
  %11 = getelementptr inbounds %"class.LIEF::MachO::FilesetCommand", ptr %10, i32 0, i32 1
  invoke void @_ZNSt7__cxx1112basic_stringIcSt11char_traitsIcESaIcEEC1ERKS4_(ptr noundef nonnull align 8 dereferenceable(32) %9, ptr noundef nonnull align 8 dereferenceable(32) %11)
          to label %12 unwind label %22

12:                                               ; preds = %2
  %13 = getelementptr inbounds %"class.LIEF::MachO::FilesetCommand", ptr %7, i32 0, i32 2
  %14 = load ptr, ptr %4, align 8
  %15 = getelementptr inbounds %"class.LIEF::MachO::FilesetCommand", ptr %14, i32 0, i32 2
  %16 = load i64, ptr %15, align 8
  store i64 %16, ptr %13, align 8
  %17 = getelementptr inbounds %"class.LIEF::MachO::FilesetCommand", ptr %7, i32 0, i32 3
  %18 = load ptr, ptr %4, align 8
  %19 = getelementptr inbounds %"class.LIEF::MachO::FilesetCommand", ptr %18, i32 0, i32 3
  %20 = load i64, ptr %19, align 8
  store i64 %20, ptr %17, align 8
  %21 = getelementptr inbounds %"class.LIEF::MachO::FilesetCommand", ptr %7, i32 0, i32 4
  store ptr null, ptr %21, align 8
  ret void

22:                                               ; preds = %2
  %23 = landingpad { ptr, i32 }
          cleanup
  %24 = extractvalue { ptr, i32 } %23, 0
  store ptr %24, ptr %5, align 8
  %25 = extractvalue { ptr, i32 } %23, 1
  store i32 %25, ptr %6, align 4
  call void @_ZN4LIEF5MachO11LoadCommandD2Ev(ptr noundef nonnull align 8 dereferenceable(56) %7) #6
  br label %26

26:                                               ; preds = %22
  %27 = load ptr, ptr %5, align 8
  %28 = load i32, ptr %6, align 4
  %29 = insertvalue { ptr, i32 } poison, ptr %27, 0
  %30 = insertvalue { ptr, i32 } %29, i32 %28, 1
  resume { ptr, i32 } %30
}