; Function Attrs: mustprogress uwtable
define void @_ZN4LIEF5MachO14FilesetCommandC2ERKS1_(ptr noundef nonnull align 8 dereferenceable(112) %0, ptr noundef nonnull align 8 dereferenceable(112) %1) unnamed_addr #0 align 2 personality ptr @__gxx_personality_v0 {
  tail call void @_ZN4LIEF5MachO11LoadCommandC2ERKS1_(ptr noundef nonnull align 8 dereferenceable(56) %0, ptr noundef nonnull align 8 dereferenceable(56) %1)
  store ptr getelementptr inbounds ({ [9 x ptr] }, ptr @_ZTVN4LIEF5MachO14FilesetCommandE, i64 0, i32 0, i64 2), ptr %0, align 8
  %3 = getelementptr inbounds i8, ptr %0, i64 56
  %4 = getelementptr inbounds i8, ptr %1, i64 56
  invoke void @_ZNSt7__cxx1112basic_stringIcSt11char_traitsIcESaIcEEC1ERKS4_(ptr noundef nonnull align 8 dereferenceable(32) %3, ptr noundef nonnull align 8 dereferenceable(32) %4)
          to label %5 unwind label %13

5:                                                ; preds = %2
  %6 = getelementptr inbounds i8, ptr %0, i64 88
  %7 = getelementptr inbounds i8, ptr %1, i64 88
  %8 = load i64, ptr %7, align 8
  store i64 %8, ptr %6, align 8
  %9 = getelementptr inbounds i8, ptr %0, i64 96
  %10 = getelementptr inbounds i8, ptr %1, i64 96
  %11 = load i64, ptr %10, align 8
  store i64 %11, ptr %9, align 8
  %12 = getelementptr inbounds i8, ptr %0, i64 104
  store ptr null, ptr %12, align 8
  ret void

13:                                               ; preds = %2
  %14 = landingpad { ptr, i32 }
          cleanup
  tail call void @_ZN4LIEF5MachO11LoadCommandD2Ev(ptr noundef nonnull align 8 dereferenceable(56) %0) #10
  resume { ptr, i32 } %14
}